target datalayout = "e-m:e-p270:32:32-p271:32:32-p272:64:64-i64:64-i128:128-f80:128-n8:16:32:64-S128"
target triple = "x86_64-pc-linux-gnu"

%struct.ChaChaPoly_Aead = type { %struct.ChaCha, %struct.Poly1305, i32, i32, i8, i8 }
%struct.ChaCha = type { [16 x i32], i32 }
%struct.Poly1305 = type { [3 x i64], [3 x i64], [2 x i64], i64, [16 x i8], i8 }

; Function Attrs: nounwind uwtable
define i32 @wc_ChaCha20Poly1305_Init(ptr noundef %0, ptr noundef %1, ptr noundef %2, i32 noundef %3) #0 {
  %5 = alloca i32, align 4
  %6 = alloca ptr, align 8
  %7 = alloca ptr, align 8
  %8 = alloca ptr, align 8
  %9 = alloca i32, align 4
  %10 = alloca i32, align 4
  %11 = alloca [32 x i8], align 16
  %12 = alloca i32, align 4
  store ptr %0, ptr %6, align 8, !tbaa !10
  store ptr %1, ptr %7, align 8, !tbaa !3
  store ptr %2, ptr %8, align 8, !tbaa !3
  store i32 %3, ptr %9, align 4, !tbaa !8
  call void @llvm.lifetime.start.p0(i64 4, ptr %10) #5
  call void @llvm.lifetime.start.p0(i64 32, ptr %11) #5
  %13 = load ptr, ptr %6, align 8, !tbaa !10
  %14 = icmp eq ptr %13, null
  br i1 %14, label %21, label %15

15:                                               ; preds = %4
  %16 = load ptr, ptr %7, align 8, !tbaa !3
  %17 = icmp eq ptr %16, null
  br i1 %17, label %21, label %18

18:                                               ; preds = %15
  %19 = load ptr, ptr %8, align 8, !tbaa !3
  %20 = icmp eq ptr %19, null
  br i1 %20, label %21, label %22

21:                                               ; preds = %18, %15, %4
  store i32 -173, ptr %5, align 4
  store i32 1, ptr %12, align 4
  br label %79

22:                                               ; preds = %18
  %23 = load ptr, ptr %6, align 8, !tbaa !10
  call void @llvm.memset.p0.i64(ptr align 8 %23, i8 0, i64 184, i1 false)
  %24 = getelementptr inbounds [32 x i8], ptr %11, i64 0, i64 0
  call void @llvm.memset.p0.i64(ptr align 16 %24, i8 0, i64 32, i1 false)
  %25 = load i32, ptr %9, align 4, !tbaa !8
  %26 = icmp ne i32 %25, 0
  %27 = select i1 %26, i32 1, i32 0
  %28 = trunc i32 %27 to i8
  %29 = load ptr, ptr %6, align 8, !tbaa !10
  %30 = getelementptr inbounds nuw %struct.ChaChaPoly_Aead, ptr %29, i32 0, i32 5
  %31 = load i8, ptr %30, align 1
  %32 = and i8 %28, 1
  %33 = and i8 %31, -2
  %34 = or i8 %33, %32
  store i8 %34, ptr %30, align 1
  %35 = load ptr, ptr %6, align 8, !tbaa !10
  %36 = getelementptr inbounds nuw %struct.ChaChaPoly_Aead, ptr %35, i32 0, i32 0
  %37 = load ptr, ptr %7, align 8, !tbaa !3
  %38 = call i32 @wc_Chacha_SetKey(ptr noundef %36, ptr noundef %37, i32 noundef 32)
  store i32 %38, ptr %10, align 4, !tbaa !8
  %39 = load i32, ptr %10, align 4, !tbaa !8
  %40 = icmp eq i32 %39, 0
  br i1 %40, label %41, label %46

41:                                               ; preds = %22
  %42 = load ptr, ptr %6, align 8, !tbaa !10
  %43 = getelementptr inbounds nuw %struct.ChaChaPoly_Aead, ptr %42, i32 0, i32 0
  %44 = load ptr, ptr %8, align 8, !tbaa !3
  %45 = call i32 @wc_Chacha_SetIV(ptr noundef %43, ptr noundef %44, i32 noundef 0)
  store i32 %45, ptr %10, align 4, !tbaa !8
  br label %46

46:                                               ; preds = %41, %22
  %47 = load i32, ptr %10, align 4, !tbaa !8
  %48 = icmp eq i32 %47, 0
  br i1 %48, label %49, label %55

49:                                               ; preds = %46
  %50 = load ptr, ptr %6, align 8, !tbaa !10
  %51 = getelementptr inbounds nuw %struct.ChaChaPoly_Aead, ptr %50, i32 0, i32 0
  %52 = getelementptr inbounds [32 x i8], ptr %11, i64 0, i64 0
  %53 = getelementptr inbounds [32 x i8], ptr %11, i64 0, i64 0
  %54 = call i32 @wc_Chacha_Process(ptr noundef %51, ptr noundef %52, ptr noundef %53, i32 noundef 32)
  store i32 %54, ptr %10, align 4, !tbaa !8
  br label %55

55:                                               ; preds = %49, %46
  %56 = load i32, ptr %10, align 4, !tbaa !8
  %57 = icmp eq i32 %56, 0
  br i1 %57, label %58, label %63

58:                                               ; preds = %55
  %59 = load ptr, ptr %6, align 8, !tbaa !10
  %60 = getelementptr inbounds nuw %struct.ChaChaPoly_Aead, ptr %59, i32 0, i32 1
  %61 = getelementptr inbounds [32 x i8], ptr %11, i64 0, i64 0
  %62 = call i32 @wc_Poly1305SetKey(ptr noundef %60, ptr noundef %61, i32 noundef 32)
  store i32 %62, ptr %10, align 4, !tbaa !8
  br label %63

63:                                               ; preds = %58, %55
  %64 = load i32, ptr %10, align 4, !tbaa !8
  %65 = icmp eq i32 %64, 0
  br i1 %65, label %66, label %71

66:                                               ; preds = %63
  %67 = load ptr, ptr %6, align 8, !tbaa !10
  %68 = getelementptr inbounds nuw %struct.ChaChaPoly_Aead, ptr %67, i32 0, i32 0
  %69 = load ptr, ptr %8, align 8, !tbaa !3
  %70 = call i32 @wc_Chacha_SetIV(ptr noundef %68, ptr noundef %69, i32 noundef 1)
  store i32 %70, ptr %10, align 4, !tbaa !8
  br label %71

71:                                               ; preds = %66, %63
  %72 = load i32, ptr %10, align 4, !tbaa !8
  %73 = icmp eq i32 %72, 0
  br i1 %73, label %74, label %77

74:                                               ; preds = %71
  %75 = load ptr, ptr %6, align 8, !tbaa !10
  %76 = getelementptr inbounds nuw %struct.ChaChaPoly_Aead, ptr %75, i32 0, i32 4
  store i8 1, ptr %76, align 8, !tbaa !12
  br label %77

77:                                               ; preds = %74, %71
  %78 = load i32, ptr %10, align 4, !tbaa !8
  store i32 %78, ptr %5, align 4
  store i32 1, ptr %12, align 4
  br label %79

79:                                               ; preds = %77, %21
  call void @llvm.lifetime.end.p0(i64 32, ptr %11) #5
  call void @llvm.lifetime.end.p0(i64 4, ptr %10) #5
  %80 = load i32, ptr %5, align 4
  ret i32 %80
}