; Function Attrs: nounwind uwtable
define i32 @wc_ChaCha20Poly1305_Init(ptr noundef %0, ptr noundef %1, ptr noundef %2, i32 noundef %3) local_unnamed_addr #0 {
  %5 = alloca [32 x i8], align 16
  call void @llvm.lifetime.start.p0(i64 32, ptr nonnull %5) #5
  %6 = icmp eq ptr %0, null
  %7 = icmp eq ptr %1, null
  %or.cond = or i1 %6, %7
  %8 = icmp eq ptr %2, null
  %or.cond3 = or i1 %or.cond, %8
  br i1 %or.cond3, label %.thread36, label %9

9:                                                ; preds = %4
  tail call void @llvm.memset.p0.i64(ptr noundef nonnull align 8 dereferenceable(184) %0, i8 0, i64 184, i1 false)
  call void @llvm.memset.p0.i64(ptr noundef nonnull align 16 dereferenceable(32) %5, i8 0, i64 32, i1 false)
  %.not = icmp ne i32 %3, 0
  %10 = zext i1 %.not to i8
  %11 = getelementptr inbounds nuw i8, ptr %0, i64 177
  store i8 %10, ptr %11, align 1
  %12 = tail call i32 @wc_Chacha_SetKey(ptr noundef nonnull %0, ptr noundef nonnull %1, i32 noundef 32) #5
  %13 = icmp eq i32 %12, 0
  br i1 %13, label %14, label %.thread36

14:                                               ; preds = %9
  %15 = tail call i32 @wc_Chacha_SetIV(ptr noundef nonnull %0, ptr noundef nonnull %2, i32 noundef 0) #5
  %16 = icmp eq i32 %15, 0
  br i1 %16, label %17, label %.thread36

17:                                               ; preds = %14
  %18 = call i32 @wc_Chacha_Process(ptr noundef nonnull %0, ptr noundef nonnull %5, ptr noundef nonnull %5, i32 noundef 32) #5
  %19 = icmp eq i32 %18, 0
  br i1 %19, label %20, label %.thread36

20:                                               ; preds = %17
  %21 = getelementptr inbounds nuw i8, ptr %0, i64 72
  %22 = call i32 @wc_Poly1305SetKey(ptr noundef nonnull %21, ptr noundef nonnull %5, i32 noundef 32) #5
  %23 = icmp eq i32 %22, 0
  br i1 %23, label %24, label %.thread36

24:                                               ; preds = %20
  %25 = call i32 @wc_Chacha_SetIV(ptr noundef nonnull %0, ptr noundef nonnull %2, i32 noundef 1) #5
  %26 = icmp eq i32 %25, 0
  br i1 %26, label %27, label %.thread36

27:                                               ; preds = %24
  %28 = getelementptr inbounds nuw i8, ptr %0, i64 176
  store i8 1, ptr %28, align 8, !tbaa !3
  br label %.thread36

.thread36:                                        ; preds = %9, %14, %17, %20, %24, %27, %4
  %.024 = phi i32 [ -173, %4 ], [ 0, %27 ], [ %25, %24 ], [ %22, %20 ], [ %18, %17 ], [ %15, %14 ], [ %12, %9 ]
  call void @llvm.lifetime.end.p0(i64 32, ptr nonnull %5) #5
  ret i32 %.024
}